target datalayout = "e-m:e-p270:32:32-p271:32:32-p272:64:64-i64:64-i128:128-f80:128-n8:16:32:64-S128"
target triple = "x86_64-pc-linux-gnu"

%struct.UFILE = type { ptr, ptr, ptr, %struct.u_localized_string, [1024 x i16], i8, i32 }
%struct.u_localized_string = type { ptr, ptr, ptr, %struct.ULocaleBundle }
%struct.ULocaleBundle = type { ptr, [5 x ptr], i8 }

; Function Attrs: mustprogress nounwind uwtable
define signext i8 @u_feof_77(ptr noundef %0) #8 {
  %2 = alloca i8, align 1
  %3 = alloca ptr, align 8
  %4 = alloca i8, align 1
  %5 = alloca i32, align 4
  store ptr %0, ptr %3, align 8, !tbaa !13
  call void @llvm.lifetime.start.p0(i64 1, ptr %4) #9
  %6 = load ptr, ptr %3, align 8, !tbaa !13
  %7 = icmp eq ptr %6, null
  br i1 %7, label %8, label %9

8:                                                ; preds = %1
  store i8 1, ptr %2, align 1
  store i32 1, ptr %5, align 4
  br label %38

9:                                                ; preds = %1
  %10 = load ptr, ptr %3, align 8, !tbaa !13
  %11 = getelementptr inbounds nuw %struct.UFILE, ptr %10, i32 0, i32 3
  %12 = getelementptr inbounds nuw %struct.u_localized_string, ptr %11, i32 0, i32 0
  %13 = load ptr, ptr %12, align 8, !tbaa !24
  %14 = load ptr, ptr %3, align 8, !tbaa !13
  %15 = getelementptr inbounds nuw %struct.UFILE, ptr %14, i32 0, i32 3
  %16 = getelementptr inbounds nuw %struct.u_localized_string, ptr %15, i32 0, i32 1
  %17 = load ptr, ptr %16, align 8, !tbaa !25
  %18 = icmp uge ptr %13, %17
  %19 = zext i1 %18 to i8
  store i8 %19, ptr %4, align 1, !tbaa !10
  %20 = load ptr, ptr %3, align 8, !tbaa !13
  %21 = getelementptr inbounds nuw %struct.UFILE, ptr %20, i32 0, i32 1
  %22 = load ptr, ptr %21, align 8, !tbaa !22
  %23 = icmp ne ptr %22, null
  br i1 %23, label %24, label %36

24:                                               ; preds = %9
  %25 = load i8, ptr %4, align 1, !tbaa !10
  %26 = icmp ne i8 %25, 0
  br i1 %26, label %27, label %33

27:                                               ; preds = %24
  %28 = load ptr, ptr %3, align 8, !tbaa !13
  %29 = getelementptr inbounds nuw %struct.UFILE, ptr %28, i32 0, i32 1
  %30 = load ptr, ptr %29, align 8, !tbaa !22
  %31 = call i32 @feof(ptr noundef %30) #9
  %32 = icmp ne i32 %31, 0
  br label %33

33:                                               ; preds = %27, %24
  %34 = phi i1 [ false, %24 ], [ %32, %27 ]
  %35 = zext i1 %34 to i8
  store i8 %35, ptr %2, align 1
  store i32 1, ptr %5, align 4
  br label %38

36:                                               ; preds = %9
  %37 = load i8, ptr %4, align 1, !tbaa !10
  store i8 %37, ptr %2, align 1
  store i32 1, ptr %5, align 4
  br label %38

38:                                               ; preds = %36, %33, %8
  call void @llvm.lifetime.end.p0(i64 1, ptr %4) #9
  %39 = load i8, ptr %2, align 1
  ret i8 %39
}