; Function Attrs: mustprogress nofree nounwind uwtable
define signext range(i8 0, 2) i8 @u_feof_77(ptr noundef readonly %0) local_unnamed_addr #7 {
  %2 = icmp eq ptr %0, null
  br i1 %2, label %14, label %3

3:                                                ; preds = %1
  %4 = getelementptr inbounds nuw i8, ptr %0, i64 24
  %5 = load ptr, ptr %4, align 8, !tbaa !19
  %6 = getelementptr inbounds nuw i8, ptr %0, i64 32
  %7 = load ptr, ptr %6, align 8, !tbaa !20
  %8 = icmp uge ptr %5, %7
  %9 = getelementptr inbounds nuw i8, ptr %0, i64 8
  %10 = load ptr, ptr %9, align 8, !tbaa !17
  %.not = icmp eq ptr %10, null
  %.not9 = xor i1 %8, true
  %brmerge = select i1 %.not, i1 true, i1 %.not9
  %.mux = select i1 %.not, i1 %8, i1 false
  br i1 %brmerge, label %14, label %11

11:                                               ; preds = %3
  %12 = tail call i32 @feof(ptr noundef nonnull %10) #9
  %13 = icmp ne i32 %12, 0
  br label %14

14:                                               ; preds = %3, %11, %1
  %.0.shrunk = phi i1 [ true, %1 ], [ %13, %11 ], [ %.mux, %3 ]
  %.0 = zext i1 %.0.shrunk to i8
  ret i8 %.0
}